(lp0
(dp1
Vservices
p2
(dp3
Vpassword
p4
(dp5
Vbcrypt
p6
V$2a$10$pbAb8K6OmsOmonCzbGRf0e1MrLp7ec1JnYIzEctMLyn9btOpzvAmG
p7
ssVresume
p8
(dp9
VloginTokens
p10
(lp11
sssV_id
p12
Vogrw4dL9mksHEKigC
p13
sVemails
p14
(lp15
(dp16
Vverified
p17
I00
sVaddress
p18
Vejolly@test.com
p19
sasVcreatedAt
p20
cdatetime
datetime
p21
(S'\x07\xe0\x05\x08\x17#\x1d\n\xcd\xa0'
p22
tp23
Rp24
sa(dp25
Vservices
p26
(dp27
Vpassword
p28
(dp29
Vbcrypt
p30
V$2a$10$5P3UUGulQ7RACVROaU56l.H1gYvRhDbuvmuXM7UXHzC/6iyt3gOJ.
p31
ssVresume
p32
(dp33
VloginTokens
p34
(lp35
sssV_id
p36
VGwbhewAmNJ3nA8g4d
p37
sVemails
p38
(lp39
(dp40
Vverified
p41
I00
sVaddress
p42
Vjames.e.carmichael.gr@dartmouth.edu
p43
sasVcreatedAt
p44
g21
(S"\x07\xe0\x05\x08\x17'6\x0bZ@"
p45
tp46
Rp47
sa(dp48
Vservices
p49
(dp50
Vpassword
p51
(dp52
Vbcrypt
p53
V$2a$10$ymYsiX7HMD4inQ20MHD/VutAr844y3JvmjeOcqLH4wu8krSX8fUXK
p54
ssVresume
p55
(dp56
VloginTokens
p57
(lp58
sssV_id
p59
VtksS632f4u9JtZ3LZ
p60
sVemails
p61
(lp62
(dp63
Vverified
p64
I00
sVaddress
p65
Vcbentivoglio@middlebury.edu
p66
sasVcreatedAt
p67
g21
(S'\x07\xe0\x05\t\x006;\x02Y\x90'
p68
tp69
Rp70
sa(dp71
Vservices
p72
(dp73
Vpassword
p74
(dp75
Vbcrypt
p76
V$2a$10$uBmZiohM3ZdT/EpsZWAlUeffalyYaZAToT.wtqAmPEMTABfWk14wi
p77
ssVresume
p78
(dp79
VloginTokens
p80
(lp81
sssV_id
p82
VQa8shq3L9omL5xHKo
p83
sVemails
p84
(lp85
(dp86
Vverified
p87
I00
sVaddress
p88
Vtest@test.com
p89
sasVcreatedAt
p90
g21
(S'\x07\xe0\x05\t\x10\x1d#\x05\xcc`'
p91
tp92
Rp93
sa(dp94
Vservices
p95
(dp96
Vpassword
p97
(dp98
Vbcrypt
p99
V$2a$10$0Bhtui2bp05B9GyS3KBhtubQz9xlVCXYhDvefDAW47TCS/iPxRNUG
p100
ssVresume
p101
(dp102
VloginTokens
p103
(lp104
(dp105
VhashedToken
p106
VbyXZrVYdeasFKoHzaKN0kjoffxeHAEIdcJSJZttl2Ik=
p107
sVwhen
p108
g21
(S"\x07\xe0\x05\n\x16\x18'\x07V\xe8"
p109
tp110
Rp111
sa(dp112
VhashedToken
p113
V5deRxFJTT8QhMfCES+CpwsQ2R31GgE8/RYnVb2UHw7g=
p114
sVwhen
p115
g21
(S'\x07\xe0\x05\n\x16\x19.\t\xa0\xd8'
p116
tp117
Rp118
sa(dp119
VhashedToken
p120
V9ToUywNIWQBE9ZFr1ZK5hNBafsheg1zqOSs8IMCr9YE=
p121
sVwhen
p122
g21
(S'\x07\xe0\x05\n\x17/\x01\x05\xcc`'
p123
tp124
Rp125
sasssV_id
p126
V3fcdRR5Y3hzdABSXn
p127
sVemails
p128
(lp129
(dp130
Vverified
p131
I00
sVaddress
p132
Vdanrwhitcomb@gmail.com
p133
sasVcreatedAt
p134
g21
(S'\x07\xe0\x05\t\x17#\x19\x01\xd0\xd8'
p135
tp136
Rp137
sa(dp138
Vservices
p139
(dp140
Vpassword
p141
(dp142
Vbcrypt
p143
V$2a$10$eKtiz4QTXwGoGksJumGP0O6NQc9QhzlDHWC91gRop4ZKmbTbgpQ52
p144
ssVresume
p145
(dp146
VloginTokens
p147
(lp148
sssV_id
p149
Vm3q2uoH5waEFCdKLQ
p150
sVemails
p151
(lp152
(dp153
Vverified
p154
I00
sVaddress
p155
Vanna.t.prescott.gr@dartmouth.edu
p156
sasVcreatedAt
p157
g21
(S'\x07\xe0\x05\r\x0f\x1e\x03\x08)\xd8'
p158
tp159
Rp160
sa(dp161
Vservices
p162
(dp163
Vpassword
p164
(dp165
Vbcrypt
p166
V$2a$10$URpEJIxBHRr4WHldL4jLkuGBnrIkLGXrEIvpwVeRcnU1Y17XgUOye
p167
ssVresume
p168
(dp169
VloginTokens
p170
(lp171
sssV_id
p172
VhZHxzvxjpzMzA4nJT
p173
sVemails
p174
(lp175
(dp176
Vverified
p177
I00
sVaddress
p178
Varatidoo@gmail.com
p179
sasVcreatedAt
p180
g21
(S'\x07\xe0\x05\r\x13&\x00\x08\x7f\xc8'
p181
tp182
Rp183
sa.